; Function Attrs: nounwind uwtable
define ptr @l___private_Lean_Meta_Tactic_Grind_MatchCond_0__Lean_Meta_Grind_isMatchCondFalseHyp_isFalse(ptr noundef %0, ptr noundef %1, ptr noundef %2, ptr noundef %3, ptr noundef %4, ptr noundef %5, ptr noundef %6, ptr noundef %7, ptr noundef %8, ptr noundef %9, ptr noundef %10) local_unnamed_addr #0 {
  %12 = tail call zeroext i8 @l_Lean_Expr_hasLooseBVars(ptr noundef %0) #4
  %13 = icmp eq i8 %12, 0
  br i1 %13, label %14, label %16

14:                                               ; preds = %11
  %15 = tail call ptr @l___private_Lean_Meta_Tactic_Grind_MatchCond_0__Lean_Meta_Grind_isMatchCondFalseHyp_isFalse___lambda__5(ptr noundef %0, ptr noundef %1, ptr nonnull poison, ptr noundef %2, ptr noundef %3, ptr noundef %4, ptr noundef %5, ptr noundef %6, ptr noundef %7, ptr noundef %8, ptr noundef %9, ptr noundef %10)
  br label %113

16:                                               ; preds = %11
  %17 = ptrtoint ptr %9 to i64
  %18 = and i64 %17, 1
  %.not = icmp eq i64 %18, 0
  br i1 %.not, label %19, label %lean_dec.exit39

19:                                               ; preds = %16
  %20 = load i32, ptr %9, align 4, !tbaa !4
  %21 = icmp sgt i32 %20, 1
  br i1 %21, label %22, label %24, !prof !9

22:                                               ; preds = %19
  %23 = add nsw i32 %20, -1
  store i32 %23, ptr %9, align 4, !tbaa !4
  br label %lean_dec.exit39

24:                                               ; preds = %19
  %.not.i = icmp eq i32 %20, 0
  br i1 %.not.i, label %lean_dec.exit39, label %25

25:                                               ; preds = %24
  tail call void @lean_dec_ref_cold(ptr noundef nonnull %9) #4
  br label %lean_dec.exit39

lean_dec.exit39:                                  ; preds = %25, %24, %22, %16
  %26 = ptrtoint ptr %8 to i64
  %27 = and i64 %26, 1
  %.not58 = icmp eq i64 %27, 0
  br i1 %.not58, label %28, label %lean_dec.exit38

28:                                               ; preds = %lean_dec.exit39
  %29 = load i32, ptr %8, align 4, !tbaa !4
  %30 = icmp sgt i32 %29, 1
  br i1 %30, label %31, label %33, !prof !9

31:                                               ; preds = %28
  %32 = add nsw i32 %29, -1
  store i32 %32, ptr %8, align 4, !tbaa !4
  br label %lean_dec.exit38

33:                                               ; preds = %28
  %.not.i40 = icmp eq i32 %29, 0
  br i1 %.not.i40, label %lean_dec.exit38, label %34

34:                                               ; preds = %33
  tail call void @lean_dec_ref_cold(ptr noundef nonnull %8) #4
  br label %lean_dec.exit38

lean_dec.exit38:                                  ; preds = %34, %33, %31, %lean_dec.exit39
  %35 = ptrtoint ptr %7 to i64
  %36 = and i64 %35, 1
  %.not59 = icmp eq i64 %36, 0
  br i1 %.not59, label %37, label %lean_dec.exit37

37:                                               ; preds = %lean_dec.exit38
  %38 = load i32, ptr %7, align 4, !tbaa !4
  %39 = icmp sgt i32 %38, 1
  br i1 %39, label %40, label %42, !prof !9

40:                                               ; preds = %37
  %41 = add nsw i32 %38, -1
  store i32 %41, ptr %7, align 4, !tbaa !4
  br label %lean_dec.exit37

42:                                               ; preds = %37
  %.not.i42 = icmp eq i32 %38, 0
  br i1 %.not.i42, label %lean_dec.exit37, label %43

43:                                               ; preds = %42
  tail call void @lean_dec_ref_cold(ptr noundef nonnull %7) #4
  br label %lean_dec.exit37

lean_dec.exit37:                                  ; preds = %43, %42, %40, %lean_dec.exit38
  %44 = ptrtoint ptr %6 to i64
  %45 = and i64 %44, 1
  %.not60 = icmp eq i64 %45, 0
  br i1 %.not60, label %46, label %lean_dec.exit36

46:                                               ; preds = %lean_dec.exit37
  %47 = load i32, ptr %6, align 4, !tbaa !4
  %48 = icmp sgt i32 %47, 1
  br i1 %48, label %49, label %51, !prof !9

49:                                               ; preds = %46
  %50 = add nsw i32 %47, -1
  store i32 %50, ptr %6, align 4, !tbaa !4
  br label %lean_dec.exit36

51:                                               ; preds = %46
  %.not.i44 = icmp eq i32 %47, 0
  br i1 %.not.i44, label %lean_dec.exit36, label %52

52:                                               ; preds = %51
  tail call void @lean_dec_ref_cold(ptr noundef nonnull %6) #4
  br label %lean_dec.exit36

lean_dec.exit36:                                  ; preds = %52, %51, %49, %lean_dec.exit37
  %53 = ptrtoint ptr %5 to i64
  %54 = and i64 %53, 1
  %.not61 = icmp eq i64 %54, 0
  br i1 %.not61, label %55, label %lean_dec.exit35

55:                                               ; preds = %lean_dec.exit36
  %56 = load i32, ptr %5, align 4, !tbaa !4
  %57 = icmp sgt i32 %56, 1
  br i1 %57, label %58, label %60, !prof !9

58:                                               ; preds = %55
  %59 = add nsw i32 %56, -1
  store i32 %59, ptr %5, align 4, !tbaa !4
  br label %lean_dec.exit35

60:                                               ; preds = %55
  %.not.i46 = icmp eq i32 %56, 0
  br i1 %.not.i46, label %lean_dec.exit35, label %61

61:                                               ; preds = %60
  tail call void @lean_dec_ref_cold(ptr noundef nonnull %5) #4
  br label %lean_dec.exit35

lean_dec.exit35:                                  ; preds = %61, %60, %58, %lean_dec.exit36
  %62 = ptrtoint ptr %4 to i64
  %63 = and i64 %62, 1
  %.not62 = icmp eq i64 %63, 0
  br i1 %.not62, label %64, label %lean_dec.exit34

64:                                               ; preds = %lean_dec.exit35
  %65 = load i32, ptr %4, align 4, !tbaa !4
  %66 = icmp sgt i32 %65, 1
  br i1 %66, label %67, label %69, !prof !9

67:                                               ; preds = %64
  %68 = add nsw i32 %65, -1
  store i32 %68, ptr %4, align 4, !tbaa !4
  br label %lean_dec.exit34

69:                                               ; preds = %64
  %.not.i48 = icmp eq i32 %65, 0
  br i1 %.not.i48, label %lean_dec.exit34, label %70

70:                                               ; preds = %69
  tail call void @lean_dec_ref_cold(ptr noundef nonnull %4) #4
  br label %lean_dec.exit34

lean_dec.exit34:                                  ; preds = %70, %69, %67, %lean_dec.exit35
  %71 = ptrtoint ptr %3 to i64
  %72 = and i64 %71, 1
  %.not63 = icmp eq i64 %72, 0
  br i1 %.not63, label %73, label %lean_dec.exit33

73:                                               ; preds = %lean_dec.exit34
  %74 = load i32, ptr %3, align 4, !tbaa !4
  %75 = icmp sgt i32 %74, 1
  br i1 %75, label %76, label %78, !prof !9

76:                                               ; preds = %73
  %77 = add nsw i32 %74, -1
  store i32 %77, ptr %3, align 4, !tbaa !4
  br label %lean_dec.exit33

78:                                               ; preds = %73
  %.not.i50 = icmp eq i32 %74, 0
  br i1 %.not.i50, label %lean_dec.exit33, label %79

79:                                               ; preds = %78
  tail call void @lean_dec_ref_cold(ptr noundef nonnull %3) #4
  br label %lean_dec.exit33

lean_dec.exit33:                                  ; preds = %79, %78, %76, %lean_dec.exit34
  %80 = ptrtoint ptr %2 to i64
  %81 = and i64 %80, 1
  %.not64 = icmp eq i64 %81, 0
  br i1 %.not64, label %82, label %lean_dec.exit32

82:                                               ; preds = %lean_dec.exit33
  %83 = load i32, ptr %2, align 4, !tbaa !4
  %84 = icmp sgt i32 %83, 1
  br i1 %84, label %85, label %87, !prof !9

85:                                               ; preds = %82
  %86 = add nsw i32 %83, -1
  store i32 %86, ptr %2, align 4, !tbaa !4
  br label %lean_dec.exit32

87:                                               ; preds = %82
  %.not.i52 = icmp eq i32 %83, 0
  br i1 %.not.i52, label %lean_dec.exit32, label %88

88:                                               ; preds = %87
  tail call void @lean_dec_ref_cold(ptr noundef nonnull %2) #4
  br label %lean_dec.exit32

lean_dec.exit32:                                  ; preds = %88, %87, %85, %lean_dec.exit33
  %89 = ptrtoint ptr %1 to i64
  %90 = and i64 %89, 1
  %.not65 = icmp eq i64 %90, 0
  br i1 %.not65, label %91, label %lean_dec.exit31

91:                                               ; preds = %lean_dec.exit32
  %92 = load i32, ptr %1, align 4, !tbaa !4
  %93 = icmp sgt i32 %92, 1
  br i1 %93, label %94, label %96, !prof !9

94:                                               ; preds = %91
  %95 = add nsw i32 %92, -1
  store i32 %95, ptr %1, align 4, !tbaa !4
  br label %lean_dec.exit31

96:                                               ; preds = %91
  %.not.i54 = icmp eq i32 %92, 0
  br i1 %.not.i54, label %lean_dec.exit31, label %97

97:                                               ; preds = %96
  tail call void @lean_dec_ref_cold(ptr noundef nonnull %1) #4
  br label %lean_dec.exit31

lean_dec.exit31:                                  ; preds = %97, %96, %94, %lean_dec.exit32
  %98 = ptrtoint ptr %0 to i64
  %99 = and i64 %98, 1
  %.not66 = icmp eq i64 %99, 0
  br i1 %.not66, label %100, label %lean_dec.exit

100:                                              ; preds = %lean_dec.exit31
  %101 = load i32, ptr %0, align 4, !tbaa !4
  %102 = icmp sgt i32 %101, 1
  br i1 %102, label %103, label %105, !prof !9

103:                                              ; preds = %100
  %104 = add nsw i32 %101, -1
  store i32 %104, ptr %0, align 4, !tbaa !4
  br label %lean_dec.exit

105:                                              ; preds = %100
  %.not.i56 = icmp eq i32 %101, 0
  br i1 %.not.i56, label %lean_dec.exit, label %106

106:                                              ; preds = %105
  tail call void @lean_dec_ref_cold(ptr noundef nonnull %0) #4
  br label %lean_dec.exit

lean_dec.exit:                                    ; preds = %106, %105, %103, %lean_dec.exit31
  tail call void @lean_inc_heartbeat() #4
  %107 = tail call noalias ptr @mi_malloc_small(i64 noundef 24) #4
  %108 = icmp eq ptr %107, null
  br i1 %108, label %109, label %lean_alloc_ctor.exit

109:                                              ; preds = %lean_dec.exit
  tail call void @lean_internal_panic_out_of_memory() #5
  unreachable

lean_alloc_ctor.exit:                             ; preds = %lean_dec.exit
  %110 = getelementptr inbounds nuw i8, ptr %107, i64 4
  store i32 1, ptr %107, align 4, !tbaa !4
  store i32 131096, ptr %110, align 4
  %111 = getelementptr inbounds nuw i8, ptr %107, i64 8
  store ptr inttoptr (i64 1 to ptr), ptr %111, align 8, !tbaa !10
  %112 = getelementptr inbounds nuw i8, ptr %107, i64 16
  store ptr %10, ptr %112, align 8, !tbaa !10
  br label %113

113:                                              ; preds = %lean_alloc_ctor.exit, %14
  %.0 = phi ptr [ %15, %14 ], [ %107, %lean_alloc_ctor.exit ]
  ret ptr %.0
}